; ModuleID = '32/595.c'
source_filename = "32/595.c"
target datalayout = "e-m:e-p270:32:32-p271:32:32-p272:64:64-i64:64-f80:128-n8:16:32:64-S128"
target triple = "x86_64-pc-linux-gnu"

@.str = private unnamed_addr constant [3 x i8] c"%d\00", align 1
@.str.1 = private unnamed_addr constant [5 x i8] c"%s%s\00", align 1
@.str.2 = private unnamed_addr constant [3 x i8] c"%c\00", align 1
@.str.3 = private unnamed_addr constant [2 x i8] c"\0A\00", align 1

; Function Attrs: noinline nounwind uwtable
define dso_local void @main() #0 {
  %1 = alloca [101 x i8], align 16
  %2 = alloca [101 x i8], align 16
  %3 = alloca i32, align 4
  %4 = alloca i32, align 4
  %5 = alloca i32, align 4
  %6 = alloca i32, align 4
  %7 = alloca i32, align 4
  %8 = alloca i32, align 4
  %9 = alloca i32, align 4
  store i32 0, i32* %8, align 4
  %10 = call i32 (i8*, ...) @__isoc99_scanf(i8* getelementptr inbounds ([3 x i8], [3 x i8]* @.str, i64 0, i64 0), i32* %3)
  store i32 1, i32* %6, align 4
  br label %11

11:                                               ; preds = %172, %0
  %12 = load i32, i32* %6, align 4
  %13 = load i32, i32* %3, align 4
  %14 = icmp sle i32 %12, %13
  br i1 %14, label %15, label %175

15:                                               ; preds = %11
  %16 = getelementptr inbounds [101 x i8], [101 x i8]* %1, i64 0, i64 0
  %17 = getelementptr inbounds [101 x i8], [101 x i8]* %2, i64 0, i64 0
  %18 = call i32 (i8*, ...) @__isoc99_scanf(i8* getelementptr inbounds ([5 x i8], [5 x i8]* @.str.1, i64 0, i64 0), i8* %16, i8* %17)
  %19 = getelementptr inbounds [101 x i8], [101 x i8]* %1, i64 0, i64 0
  %20 = call i64 @strlen(i8* %19) #3
  %21 = trunc i64 %20 to i32
  store i32 %21, i32* %4, align 4
  %22 = getelementptr inbounds [101 x i8], [101 x i8]* %2, i64 0, i64 0
  %23 = call i64 @strlen(i8* %22) #3
  %24 = trunc i64 %23 to i32
  store i32 %24, i32* %5, align 4
  store i32 1, i32* %7, align 4
  br label %25

25:                                               ; preds = %141, %15
  %26 = load i32, i32* %7, align 4
  %27 = load i32, i32* %5, align 4
  %28 = icmp sle i32 %26, %27
  br i1 %28, label %29, label %144

29:                                               ; preds = %25
  %30 = load i32, i32* %5, align 4
  %31 = load i32, i32* %7, align 4
  %32 = sub nsw i32 %30, %31
  %33 = sext i32 %32 to i64
  %34 = getelementptr inbounds [101 x i8], [101 x i8]* %2, i64 0, i64 %33
  %35 = load i8, i8* %34, align 1
  %36 = sext i8 %35 to i32
  %37 = load i32, i32* %4, align 4
  %38 = load i32, i32* %7, align 4
  %39 = sub nsw i32 %37, %38
  %40 = sext i32 %39 to i64
  %41 = getelementptr inbounds [101 x i8], [101 x i8]* %1, i64 0, i64 %40
  %42 = load i8, i8* %41, align 1
  %43 = sext i8 %42 to i32
  %44 = icmp sle i32 %36, %43
  br i1 %44, label %45, label %68

45:                                               ; preds = %29
  %46 = load i32, i32* %4, align 4
  %47 = load i32, i32* %7, align 4
  %48 = sub nsw i32 %46, %47
  %49 = sext i32 %48 to i64
  %50 = getelementptr inbounds [101 x i8], [101 x i8]* %1, i64 0, i64 %49
  %51 = load i8, i8* %50, align 1
  %52 = sext i8 %51 to i32
  %53 = load i32, i32* %5, align 4
  %54 = load i32, i32* %7, align 4
  %55 = sub nsw i32 %53, %54
  %56 = sext i32 %55 to i64
  %57 = getelementptr inbounds [101 x i8], [101 x i8]* %2, i64 0, i64 %56
  %58 = load i8, i8* %57, align 1
  %59 = sext i8 %58 to i32
  %60 = sub nsw i32 %52, %59
  %61 = add nsw i32 %60, 48
  %62 = trunc i32 %61 to i8
  %63 = load i32, i32* %4, align 4
  %64 = load i32, i32* %7, align 4
  %65 = sub nsw i32 %63, %64
  %66 = sext i32 %65 to i64
  %67 = getelementptr inbounds [101 x i8], [101 x i8]* %1, i64 0, i64 %66
  store i8 %62, i8* %67, align 1
  br label %140

68:                                               ; preds = %29
  %69 = load i32, i32* %4, align 4
  %70 = load i32, i32* %7, align 4
  %71 = sub nsw i32 %69, %70
  %72 = sext i32 %71 to i64
  %73 = getelementptr inbounds [101 x i8], [101 x i8]* %1, i64 0, i64 %72
  %74 = load i8, i8* %73, align 1
  %75 = sext i8 %74 to i32
  %76 = load i32, i32* %5, align 4
  %77 = load i32, i32* %7, align 4
  %78 = sub nsw i32 %76, %77
  %79 = sext i32 %78 to i64
  %80 = getelementptr inbounds [101 x i8], [101 x i8]* %2, i64 0, i64 %79
  %81 = load i8, i8* %80, align 1
  %82 = sext i8 %81 to i32
  %83 = sub nsw i32 %75, %82
  %84 = add nsw i32 %83, 58
  %85 = trunc i32 %84 to i8
  %86 = load i32, i32* %4, align 4
  %87 = load i32, i32* %7, align 4
  %88 = sub nsw i32 %86, %87
  %89 = sext i32 %88 to i64
  %90 = getelementptr inbounds [101 x i8], [101 x i8]* %1, i64 0, i64 %89
  store i8 %85, i8* %90, align 1
  %91 = load i32, i32* %4, align 4
  %92 = sub nsw i32 %91, 1
  %93 = load i32, i32* %7, align 4
  %94 = sub nsw i32 %92, %93
  %95 = sext i32 %94 to i64
  %96 = getelementptr inbounds [101 x i8], [101 x i8]* %1, i64 0, i64 %95
  %97 = load i8, i8* %96, align 1
  %98 = sext i8 %97 to i32
  %99 = icmp sgt i32 %98, 48
  br i1 %99, label %100, label %109

100:                                              ; preds = %68
  %101 = load i32, i32* %4, align 4
  %102 = sub nsw i32 %101, 1
  %103 = load i32, i32* %7, align 4
  %104 = sub nsw i32 %102, %103
  %105 = sext i32 %104 to i64
  %106 = getelementptr inbounds [101 x i8], [101 x i8]* %1, i64 0, i64 %105
  %107 = load i8, i8* %106, align 1
  %108 = add i8 %107, -1
  store i8 %108, i8* %106, align 1
  br label %139

109:                                              ; preds = %68
  %110 = load i32, i32* %7, align 4
  store i32 %110, i32* %9, align 4
  br label %111

111:                                              ; preds = %121, %109
  %112 = load i32, i32* %4, align 4
  %113 = sub nsw i32 %112, 1
  %114 = load i32, i32* %9, align 4
  %115 = sub nsw i32 %113, %114
  %116 = sext i32 %115 to i64
  %117 = getelementptr inbounds [101 x i8], [101 x i8]* %1, i64 0, i64 %116
  %118 = load i8, i8* %117, align 1
  %119 = sext i8 %118 to i32
  %120 = icmp eq i32 %119, 48
  br i1 %120, label %121, label %130

121:                                              ; preds = %111
  %122 = load i32, i32* %4, align 4
  %123 = sub nsw i32 %122, 1
  %124 = load i32, i32* %9, align 4
  %125 = sub nsw i32 %123, %124
  %126 = sext i32 %125 to i64
  %127 = getelementptr inbounds [101 x i8], [101 x i8]* %1, i64 0, i64 %126
  store i8 57, i8* %127, align 1
  %128 = load i32, i32* %9, align 4
  %129 = add nsw i32 %128, 1
  store i32 %129, i32* %9, align 4
  br label %111

130:                                              ; preds = %111
  %131 = load i32, i32* %4, align 4
  %132 = sub nsw i32 %131, 1
  %133 = load i32, i32* %9, align 4
  %134 = sub nsw i32 %132, %133
  %135 = sext i32 %134 to i64
  %136 = getelementptr inbounds [101 x i8], [101 x i8]* %1, i64 0, i64 %135
  %137 = load i8, i8* %136, align 1
  %138 = add i8 %137, -1
  store i8 %138, i8* %136, align 1
  br label %139

139:                                              ; preds = %130, %100
  br label %140

140:                                              ; preds = %139, %45
  br label %141

141:                                              ; preds = %140
  %142 = load i32, i32* %7, align 4
  %143 = add nsw i32 %142, 1
  store i32 %143, i32* %7, align 4
  br label %25

144:                                              ; preds = %25
  br label %145

145:                                              ; preds = %152, %144
  %146 = load i32, i32* %8, align 4
  %147 = sext i32 %146 to i64
  %148 = getelementptr inbounds [101 x i8], [101 x i8]* %1, i64 0, i64 %147
  %149 = load i8, i8* %148, align 1
  %150 = sext i8 %149 to i32
  %151 = icmp eq i32 %150, 48
  br i1 %151, label %152, label %155

152:                                              ; preds = %145
  %153 = load i32, i32* %8, align 4
  %154 = add nsw i32 %153, 1
  store i32 %154, i32* %8, align 4
  br label %145

155:                                              ; preds = %145
  br label %156

156:                                              ; preds = %167, %155
  %157 = load i32, i32* %8, align 4
  %158 = load i32, i32* %4, align 4
  %159 = icmp slt i32 %157, %158
  br i1 %159, label %160, label %170

160:                                              ; preds = %156
  %161 = load i32, i32* %8, align 4
  %162 = sext i32 %161 to i64
  %163 = getelementptr inbounds [101 x i8], [101 x i8]* %1, i64 0, i64 %162
  %164 = load i8, i8* %163, align 1
  %165 = sext i8 %164 to i32
  %166 = call i32 (i8*, ...) @printf(i8* getelementptr inbounds ([3 x i8], [3 x i8]* @.str.2, i64 0, i64 0), i32 %165)
  br label %167

167:                                              ; preds = %160
  %168 = load i32, i32* %8, align 4
  %169 = add nsw i32 %168, 1
  store i32 %169, i32* %8, align 4
  br label %156

170:                                              ; preds = %156
  store i32 0, i32* %8, align 4
  %171 = call i32 (i8*, ...) @printf(i8* getelementptr inbounds ([2 x i8], [2 x i8]* @.str.3, i64 0, i64 0))
  br label %172

172:                                              ; preds = %170
  %173 = load i32, i32* %6, align 4
  %174 = add nsw i32 %173, 1
  store i32 %174, i32* %6, align 4
  br label %11

175:                                              ; preds = %11
  ret void
}

declare dso_local i32 @__isoc99_scanf(i8*, ...) #1

; Function Attrs: nounwind readonly
declare dso_local i64 @strlen(i8*) #2

declare dso_local i32 @printf(i8*, ...) #1


!llvm.module.flags = !{!0}
!llvm.ident = !{!1}

!0 = !{i32 1, !"wchar_size", i32 4}
!1 = !{!"clang version 10.0.0-4ubuntu1 "}
